target datalayout = "e-m:e-p270:32:32-p271:32:32-p272:64:64-i64:64-i128:128-f80:128-n8:16:32:64-S128"
target triple = "x86_64-unknown-linux-gnu"

%"class.std::__cxx11::basic_string" = type { %"struct.std::__cxx11::basic_string<char>::_Alloc_hider", i64, %union.anon }
%"struct.std::__cxx11::basic_string<char>::_Alloc_hider" = type { ptr }
%union.anon = type { i64, [8 x i8] }
%"class.std::allocator" = type { i8 }

@.str.799 = private unnamed_addr constant [7 x i8] c"L'%lc'\00", align 1
@.str.800 = private unnamed_addr constant [12 x i8] c"L'\\x%.*llx'\00", align 1

; Function Attrs: mustprogress uwtable
define internal void @_ZN4absl19str_format_internal12_GLOBAL__N_13EscB5cxx11Ew(ptr noalias sret(%"class.std::__cxx11::basic_string") align 8 %agg.result, i32 noundef signext %v) #4 personality ptr @__gxx_personality_v0 {
entry:
  %result.ptr = alloca ptr, align 8
  %v.addr = alloca i32, align 4
  %buf = alloca [64 x i8], align 16
  %n = alloca i32, align 4
  %ref.tmp = alloca %"class.std::allocator", align 1
  %exn.slot = alloca ptr, align 8
  %ehselector.slot = alloca i32, align 4
  store ptr %agg.result, ptr %result.ptr, align 8
  store i32 %v, ptr %v.addr, align 4
  %0 = load i32, ptr %v.addr, align 4
  %call = call i32 @iswprint(i32 noundef %0) #3
  %tobool = icmp ne i32 %call, 0
  br i1 %tobool, label %cond.true, label %cond.false

cond.true:                                        ; preds = %entry
  %arraydecay = getelementptr inbounds [64 x i8], ptr %buf, i64 0, i64 0
  %1 = load i32, ptr %v.addr, align 4
  %call1 = call i32 (ptr, i64, ptr, ...) @snprintf(ptr noundef %arraydecay, i64 noundef 64, ptr noundef @.str.799, i32 noundef %1) #3
  br label %cond.end

cond.false:                                       ; preds = %entry
  %arraydecay2 = getelementptr inbounds [64 x i8], ptr %buf, i64 0, i64 0
  %2 = load i32, ptr %v.addr, align 4
  %conv = zext i32 %2 to i64
  %call3 = call i32 (ptr, i64, ptr, ...) @snprintf(ptr noundef %arraydecay2, i64 noundef 64, ptr noundef @.str.800, i32 noundef 8, i64 noundef %conv) #3
  br label %cond.end

cond.end:                                         ; preds = %cond.false, %cond.true
  %cond = phi i32 [ %call1, %cond.true ], [ %call3, %cond.false ]
  store i32 %cond, ptr %n, align 4
  %arraydecay4 = getelementptr inbounds [64 x i8], ptr %buf, i64 0, i64 0
  %3 = load i32, ptr %n, align 4
  %conv5 = sext i32 %3 to i64
  call void @_ZNSaIcEC1Ev(ptr noundef nonnull align 1 dereferenceable(1) %ref.tmp) #3
  invoke void @_ZNSt7__cxx1112basic_stringIcSt11char_traitsIcESaIcEEC1EPKcmRKS3_(ptr noundef nonnull align 8 dereferenceable(32) %agg.result, ptr noundef %arraydecay4, i64 noundef %conv5, ptr noundef nonnull align 1 dereferenceable(1) %ref.tmp)
          to label %invoke.cont unwind label %lpad

invoke.cont:                                      ; preds = %cond.end
  call void @_ZNSaIcED1Ev(ptr noundef nonnull align 1 dereferenceable(1) %ref.tmp) #3
  ret void

lpad:                                             ; preds = %cond.end
  %4 = landingpad { ptr, i32 }
          cleanup
  %5 = extractvalue { ptr, i32 } %4, 0
  store ptr %5, ptr %exn.slot, align 8
  %6 = extractvalue { ptr, i32 } %4, 1
  store i32 %6, ptr %ehselector.slot, align 4
  call void @_ZNSaIcED1Ev(ptr noundef nonnull align 1 dereferenceable(1) %ref.tmp) #3
  br label %eh.resume

eh.resume:                                        ; preds = %lpad
  %exn = load ptr, ptr %exn.slot, align 8
  %sel = load i32, ptr %ehselector.slot, align 4
  %lpad.val = insertvalue { ptr, i32 } poison, ptr %exn, 0
  %lpad.val6 = insertvalue { ptr, i32 } %lpad.val, i32 %sel, 1
  resume { ptr, i32 } %lpad.val6
}