; Function Attrs: mustprogress uwtable
define internal fastcc void @_ZN4absl19str_format_internal12_GLOBAL__N_13EscB5cxx11Ew(ptr noalias align 8 %agg.result, i32 noundef signext %v) unnamed_addr #3 personality ptr @__gxx_personality_v0 {
entry:
  %buf = alloca [64 x i8], align 16
  %ref.tmp = alloca %"class.std::allocator", align 1
  %call = tail call i32 @iswprint(i32 noundef %v) #28
  %tobool.not = icmp eq i32 %call, 0
  br i1 %tobool.not, label %cond.false, label %cond.true

cond.true:                                        ; preds = %entry
  %call1 = call i32 (ptr, i64, ptr, ...) @snprintf(ptr noundef nonnull dereferenceable(1) %buf, i64 noundef 64, ptr noundef nonnull @.str.799, i32 noundef %v) #28
  br label %cond.end

cond.false:                                       ; preds = %entry
  %conv = zext i32 %v to i64
  %call3 = call i32 (ptr, i64, ptr, ...) @snprintf(ptr noundef nonnull dereferenceable(1) %buf, i64 noundef 64, ptr noundef nonnull @.str.800, i32 noundef 8, i64 noundef %conv) #28
  br label %cond.end

cond.end:                                         ; preds = %cond.false, %cond.true
  %cond = phi i32 [ %call1, %cond.true ], [ %call3, %cond.false ]
  %conv5 = sext i32 %cond to i64
  call void @_ZNSaIcEC1Ev(ptr noundef nonnull align 1 dereferenceable(1) %ref.tmp) #28
  invoke void @_ZNSt7__cxx1112basic_stringIcSt11char_traitsIcESaIcEEC1EPKcmRKS3_(ptr noundef nonnull align 8 dereferenceable(32) %agg.result, ptr noundef nonnull %buf, i64 noundef %conv5, ptr noundef nonnull align 1 dereferenceable(1) %ref.tmp)
          to label %invoke.cont unwind label %lpad

invoke.cont:                                      ; preds = %cond.end
  call void @_ZNSaIcED1Ev(ptr noundef nonnull align 1 dereferenceable(1) %ref.tmp) #28
  ret void

lpad:                                             ; preds = %cond.end
  %0 = landingpad { ptr, i32 }
          cleanup
  call void @_ZNSaIcED1Ev(ptr noundef nonnull align 1 dereferenceable(1) %ref.tmp) #28
  resume { ptr, i32 } %0
}